; Function Attrs: mustprogress uwtable
define range(i32 0, 2) i32 @ImfOutputWritePixels(ptr noundef nonnull %0, i32 noundef %1) local_unnamed_addr #8 personality ptr @__gxx_personality_v0 {
  invoke void @_ZN7Imf_3_414RgbaOutputFile11writePixelsEi(ptr noundef nonnull align 8 dereferenceable(24) %0, i32 noundef %1)
          to label %16 unwind label %3

3:                                                ; preds = %2
  %4 = landingpad { ptr, i32 }
          catch ptr @_ZTISt9exception
  %5 = extractvalue { ptr, i32 } %4, 1
  %6 = tail call i32 @llvm.eh.typeid.for.p0(ptr nonnull @_ZTISt9exception) #24
  %7 = icmp eq i32 %5, %6
  br i1 %7, label %8, label %17

8:                                                ; preds = %3
  %9 = extractvalue { ptr, i32 } %4, 0
  %10 = tail call ptr @__cxa_begin_catch(ptr %9) #24
  %11 = load ptr, ptr %10, align 8, !tbaa !22
  %12 = getelementptr inbounds nuw i8, ptr %11, i64 16
  %13 = load ptr, ptr %12, align 8
  %14 = tail call noundef ptr %13(ptr noundef nonnull align 8 dereferenceable(8) %10) #24
  %15 = tail call ptr @strncpy(ptr noundef nonnull dereferenceable(1) @_ZN12_GLOBAL__N_112errorMessageE, ptr noundef nonnull dereferenceable(1) %14, i64 noundef 1023) #24
  store i8 0, ptr getelementptr inbounds nuw (i8, ptr @_ZN12_GLOBAL__N_112errorMessageE, i64 1023), align 1, !tbaa !15
  tail call void @__cxa_end_catch()
  br label %16

16:                                               ; preds = %2, %8
  %.0 = phi i32 [ 0, %8 ], [ 1, %2 ]
  ret i32 %.0

17:                                               ; preds = %3
  resume { ptr, i32 } %4
}